(dp0
Vengine
p1
Vpdflatex
p2
sVpackages
p3
c__builtin__
set
p4
((lp5
Vhyperref
p6
aVtikz
p7
aVxcolor
p8
aVamsmath
p9
aVetoolbox
p10
aVlistings
p11
aVamsthm
p12
aVenumerate
p13
aVamsfonts
p14
aVgraphicx
p15
aVfullpage
p16
aVamssymb
p17
atp18
Rp19
sVfiles_with_guttermarks
p20
g4
((lp21
S'HW1.tex'
p22
aV/Users/ericboris/Documents/CSE312/HW1/./HW1.tex
p23
atp24
Rp25
sVsynctex
p26
I01
s.